target datalayout = "e-m:e-p270:32:32-p271:32:32-p272:64:64-i64:64-i128:128-f80:128-n8:16:32:64-S128"
target triple = "x86_64-pc-linux-gnu"

%class.symbol = type { ptr }
%class.decl = type { %class.ast, %class.symbol, ptr }
%class.ast = type { i32, i32, i32, i32 }
%class.vector.43 = type { ptr }
%class.decl_info = type <{ i32, i32, %class.vector.43, i8, [7 x i8] }>
%class.zstring = type { %class.buffer }
%class.buffer = type { ptr, i32, i32, [64 x i8] }
%"class.seq_util::str" = type <{ ptr, ptr, i32, [4 x i8] }>
%class.app = type { %class.expr, ptr, i32, %struct.app_flags, [0 x ptr] }
%class.expr = type { %class.ast }
%struct.app_flags = type <{ i16, i8, i8 }>
%class.anon.53 = type { ptr, ptr, ptr, ptr, ptr }

; Function Attrs: mustprogress nounwind uwtable
define linkonce_odr hidden noundef zeroext i1 @_ZNK9decl_info10is_decl_ofEii(ptr noundef nonnull align 8 dereferenceable(17) %0, i32 noundef %1, i32 noundef %2) #6 comdat align 2 {
  %4 = alloca ptr, align 8
  %5 = alloca i32, align 4
  %6 = alloca i32, align 4
  store ptr %0, ptr %4, align 8, !tbaa !188
  store i32 %1, ptr %5, align 4, !tbaa !55
  store i32 %2, ptr %6, align 4, !tbaa !55
  %7 = load ptr, ptr %4, align 8
  %8 = getelementptr inbounds nuw %class.decl_info, ptr %7, i32 0, i32 0
  %9 = load i32, ptr %8, align 8, !tbaa !308
  %10 = load i32, ptr %5, align 4, !tbaa !55
  %11 = icmp eq i32 %9, %10
  br i1 %11, label %12, label %17

12:                                               ; preds = %3
  %13 = load i32, ptr %6, align 4, !tbaa !55
  %14 = getelementptr inbounds nuw %class.decl_info, ptr %7, i32 0, i32 1
  %15 = load i32, ptr %14, align 4, !tbaa !311
  %16 = icmp eq i32 %13, %15
  br label %17

17:                                               ; preds = %12, %3
  %18 = phi i1 [ false, %3 ], [ %16, %12 ]
  ret i1 %18
}

; Function Attrs: mustprogress uwtable
define linkonce_odr hidden noundef zeroext i1 @_ZNK4decl10is_decl_ofEii(ptr noundef nonnull align 8 dereferenceable(32) %0, i32 noundef %1, i32 noundef %2) #4 comdat align 2 {
  %4 = alloca ptr, align 8
  %5 = alloca i32, align 4
  %6 = alloca i32, align 4
  store ptr %0, ptr %4, align 8, !tbaa !56
  store i32 %1, ptr %5, align 4, !tbaa !55
  store i32 %2, ptr %6, align 4, !tbaa !55
  %7 = load ptr, ptr %4, align 8
  %8 = getelementptr inbounds nuw %class.decl, ptr %7, i32 0, i32 2
  %9 = load ptr, ptr %8, align 8, !tbaa !69
  %10 = icmp ne ptr %9, null
  br i1 %10, label %11, label %17

11:                                               ; preds = %3
  %12 = getelementptr inbounds nuw %class.decl, ptr %7, i32 0, i32 2
  %13 = load ptr, ptr %12, align 8, !tbaa !69
  %14 = load i32, ptr %5, align 4, !tbaa !55
  %15 = load i32, ptr %6, align 4, !tbaa !55
  %16 = call noundef zeroext i1 @_ZNK9decl_info10is_decl_ofEii(ptr noundef nonnull align 8 dereferenceable(17) %13, i32 noundef %14, i32 noundef %15)
  br label %17

17:                                               ; preds = %11, %3
  %18 = phi i1 [ false, %3 ], [ %16, %11 ]
  ret i1 %18
}

; Function Attrs: mustprogress uwtable
define linkonce_odr hidden noundef zeroext i1 @_ZNK3app9is_app_ofEii(ptr noundef nonnull align 8 dereferenceable(32) %0, i32 noundef %1, i32 noundef %2) #4 comdat align 2 {
  %4 = alloca ptr, align 8
  %5 = alloca i32, align 4
  %6 = alloca i32, align 4
  store ptr %0, ptr %4, align 8, !tbaa !227
  store i32 %1, ptr %5, align 4, !tbaa !55
  store i32 %2, ptr %6, align 4, !tbaa !55
  %7 = load ptr, ptr %4, align 8
  %8 = getelementptr inbounds nuw %class.app, ptr %7, i32 0, i32 1
  %9 = load ptr, ptr %8, align 8, !tbaa !247
  %10 = load i32, ptr %5, align 4, !tbaa !55
  %11 = load i32, ptr %6, align 4, !tbaa !55
  %12 = call noundef zeroext i1 @_ZNK4decl10is_decl_ofEii(ptr noundef nonnull align 8 dereferenceable(32) %9, i32 noundef %10, i32 noundef %11)
  ret i1 %12
}

; Function Attrs: mustprogress nounwind uwtable
define linkonce_odr hidden noundef i32 @_ZNK3ast8get_kindEv(ptr noundef nonnull align 4 dereferenceable(16) %0) #6 comdat align 2 {
  %2 = alloca ptr, align 8
  store ptr %0, ptr %2, align 8, !tbaa !50
  %3 = load ptr, ptr %2, align 8
  %4 = getelementptr inbounds nuw %class.ast, ptr %3, i32 0, i32 1
  %5 = load i32, ptr %4, align 4
  %6 = and i32 %5, 65535
  ret i32 %6
}

; Function Attrs: inlinehint mustprogress uwtable
define linkonce_odr hidden noundef zeroext i1 @_Z9is_app_ofPK4exprii(ptr noundef %0, i32 noundef %1, i32 noundef %2) #8 comdat {
  %4 = alloca ptr, align 8
  %5 = alloca i32, align 4
  %6 = alloca i32, align 4
  store ptr %0, ptr %4, align 8, !tbaa !229
  store i32 %1, ptr %5, align 4, !tbaa !55
  store i32 %2, ptr %6, align 4, !tbaa !55
  %7 = load ptr, ptr %4, align 8, !tbaa !229
  %8 = call noundef i32 @_ZNK3ast8get_kindEv(ptr noundef nonnull align 4 dereferenceable(16) %7)
  %9 = icmp eq i32 %8, 0
  br i1 %9, label %10, label %16

10:                                               ; preds = %3
  %11 = load ptr, ptr %4, align 8, !tbaa !229
  %12 = call noundef ptr @_Z6to_appPK3ast(ptr noundef %11)
  %13 = load i32, ptr %5, align 4, !tbaa !55
  %14 = load i32, ptr %6, align 4, !tbaa !55
  %15 = call noundef zeroext i1 @_ZNK3app9is_app_ofEii(ptr noundef nonnull align 8 dereferenceable(32) %12, i32 noundef %13, i32 noundef %14)
  br label %16

16:                                               ; preds = %10, %3
  %17 = phi i1 [ false, %3 ], [ %15, %10 ]
  ret i1 %17
}

; Function Attrs: mustprogress nounwind uwtable
define linkonce_odr hidden noundef ptr @_ZNK3app7get_argEj(ptr noundef nonnull align 8 dereferenceable(32) %0, i32 noundef %1) #6 comdat align 2 {
  %3 = alloca ptr, align 8
  %4 = alloca i32, align 4
  store ptr %0, ptr %3, align 8, !tbaa !227
  store i32 %1, ptr %4, align 4, !tbaa !55
  %5 = load ptr, ptr %3, align 8
  %6 = getelementptr inbounds nuw %class.app, ptr %5, i32 0, i32 4
  %7 = load i32, ptr %4, align 4, !tbaa !55
  %8 = zext i32 %7 to i64
  %9 = getelementptr inbounds nuw [0 x ptr], ptr %6, i64 0, i64 %8
  %10 = load ptr, ptr %9, align 8, !tbaa !229
  ret ptr %10
}

; Function Attrs: mustprogress nounwind uwtable
define linkonce_odr hidden noundef i32 @_ZNK3app12get_num_argsEv(ptr noundef nonnull align 8 dereferenceable(32) %0) #6 comdat align 2 {
  %2 = alloca ptr, align 8
  store ptr %0, ptr %2, align 8, !tbaa !227
  %3 = load ptr, ptr %2, align 8
  %4 = getelementptr inbounds nuw %class.app, ptr %3, i32 0, i32 2
  %5 = load i32, ptr %4, align 8, !tbaa !232
  ret i32 %5
}

; Function Attrs: inlinehint mustprogress nounwind uwtable
define linkonce_odr hidden noundef ptr @_Z6to_appPK3ast(ptr noundef %0) #5 comdat {
  %2 = alloca ptr, align 8
  store ptr %0, ptr %2, align 8, !tbaa !50
  %3 = load ptr, ptr %2, align 8, !tbaa !50
  ret ptr %3
}

; Function Attrs: mustprogress nounwind uwtable
define linkonce_odr hidden void @_ZN6bufferIjLb1ELj16EEC2Ev(ptr noundef nonnull align 8 dereferenceable(80) %0) unnamed_addr #6 comdat align 2 {
  %2 = alloca ptr, align 8
  store ptr %0, ptr %2, align 8, !tbaa !386
  %3 = load ptr, ptr %2, align 8
  %4 = getelementptr inbounds nuw %class.buffer, ptr %3, i32 0, i32 0
  %5 = getelementptr inbounds nuw %class.buffer, ptr %3, i32 0, i32 3
  %6 = getelementptr inbounds [64 x i8], ptr %5, i64 0, i64 0
  store ptr %6, ptr %4, align 8, !tbaa !388
  %7 = getelementptr inbounds nuw %class.buffer, ptr %3, i32 0, i32 1
  store i32 0, ptr %7, align 8, !tbaa !390
  %8 = getelementptr inbounds nuw %class.buffer, ptr %3, i32 0, i32 2
  store i32 16, ptr %8, align 4, !tbaa !391
  ret void
}

; Function Attrs: mustprogress nounwind uwtable
define hidden noundef i32 @_ZNK8seq_util8max_plusEjj(ptr noundef nonnull align 8 dereferenceable(136) %0, i32 noundef %1, i32 noundef %2) #6 align 2 {
  %4 = alloca i32, align 4
  %5 = alloca ptr, align 8
  %6 = alloca i32, align 4
  %7 = alloca i32, align 4
  store ptr %0, ptr %5, align 8, !tbaa !207
  store i32 %1, ptr %6, align 4, !tbaa !55
  store i32 %2, ptr %7, align 4, !tbaa !55
  %8 = load i32, ptr %6, align 4, !tbaa !55
  %9 = load i32, ptr %7, align 4, !tbaa !55
  %10 = add i32 %8, %9
  %11 = load i32, ptr %6, align 4, !tbaa !55
  %12 = icmp ult i32 %10, %11
  br i1 %12, label %19, label %13

13:                                               ; preds = %3
  %14 = load i32, ptr %6, align 4, !tbaa !55
  %15 = load i32, ptr %7, align 4, !tbaa !55
  %16 = add i32 %14, %15
  %17 = load i32, ptr %7, align 4, !tbaa !55
  %18 = icmp ult i32 %16, %17
  br i1 %18, label %19, label %20

19:                                               ; preds = %13, %3
  store i32 -1, ptr %4, align 4
  br label %24

20:                                               ; preds = %13
  %21 = load i32, ptr %6, align 4, !tbaa !55
  %22 = load i32, ptr %7, align 4, !tbaa !55
  %23 = add i32 %21, %22
  store i32 %23, ptr %4, align 4
  br label %24

24:                                               ; preds = %20, %19
  %25 = load i32, ptr %4, align 4
  ret i32 %25
}

; Function Attrs: mustprogress uwtable
define linkonce_odr hidden noundef zeroext i1 @_ZNK8seq_util3str9is_concatEPK4expr(ptr noundef nonnull align 8 dereferenceable(20) %0, ptr noundef %1) #4 comdat align 2 {
  %3 = alloca ptr, align 8
  %4 = alloca ptr, align 8
  store ptr %0, ptr %3, align 8, !tbaa !224
  store ptr %1, ptr %4, align 8, !tbaa !229
  %5 = load ptr, ptr %3, align 8
  %6 = load ptr, ptr %4, align 8, !tbaa !229
  %7 = getelementptr inbounds nuw %"class.seq_util::str", ptr %5, i32 0, i32 2
  %8 = load i32, ptr %7, align 8, !tbaa !226
  %9 = call noundef zeroext i1 @_Z9is_app_ofPK4exprii(ptr noundef %6, i32 noundef %8, i32 noundef 2)
  ret i1 %9
}

; Function Attrs: mustprogress uwtable
define linkonce_odr hidden noundef zeroext i1 @_ZNK8seq_util3str9is_concatEPK4exprRPS1_S5_(ptr noundef nonnull align 8 dereferenceable(20) %0, ptr noundef %1, ptr noundef nonnull align 8 dereferenceable(8) %2, ptr noundef nonnull align 8 dereferenceable(8) %3) #4 comdat align 2 {
  %5 = alloca i1, align 1
  %6 = alloca ptr, align 8
  %7 = alloca ptr, align 8
  %8 = alloca ptr, align 8
  %9 = alloca ptr, align 8
  store ptr %0, ptr %6, align 8, !tbaa !224
  store ptr %1, ptr %7, align 8, !tbaa !229
  store ptr %2, ptr %8, align 8, !tbaa !228
  store ptr %3, ptr %9, align 8, !tbaa !228
  %10 = load ptr, ptr %6, align 8
  %11 = load ptr, ptr %7, align 8, !tbaa !229
  %12 = call noundef zeroext i1 @_ZNK8seq_util3str9is_concatEPK4expr(ptr noundef nonnull align 8 dereferenceable(20) %10, ptr noundef %11)
  br i1 %12, label %13, label %27

13:                                               ; preds = %4
  %14 = load ptr, ptr %7, align 8, !tbaa !229
  %15 = call noundef ptr @_Z6to_appPK3ast(ptr noundef %14)
  %16 = call noundef i32 @_ZNK3app12get_num_argsEv(ptr noundef nonnull align 8 dereferenceable(32) %15)
  %17 = icmp eq i32 %16, 2
  br i1 %17, label %18, label %27

18:                                               ; preds = %13
  %19 = load ptr, ptr %7, align 8, !tbaa !229
  %20 = call noundef ptr @_Z6to_appPK3ast(ptr noundef %19)
  %21 = call noundef ptr @_ZNK3app7get_argEj(ptr noundef nonnull align 8 dereferenceable(32) %20, i32 noundef 0)
  %22 = load ptr, ptr %8, align 8, !tbaa !228
  store ptr %21, ptr %22, align 8, !tbaa !229
  %23 = load ptr, ptr %7, align 8, !tbaa !229
  %24 = call noundef ptr @_Z6to_appPK3ast(ptr noundef %23)
  %25 = call noundef ptr @_ZNK3app7get_argEj(ptr noundef nonnull align 8 dereferenceable(32) %24, i32 noundef 1)
  %26 = load ptr, ptr %9, align 8, !tbaa !228
  store ptr %25, ptr %26, align 8, !tbaa !229
  store i1 true, ptr %5, align 1
  br label %28

27:                                               ; preds = %13, %4
  store i1 false, ptr %5, align 1
  br label %28

28:                                               ; preds = %27, %18
  %29 = load i1, ptr %5, align 1
  ret i1 %29
}

; Function Attrs: mustprogress nounwind uwtable
define linkonce_odr hidden void @_ZN7zstringC2Ev(ptr noundef nonnull align 8 dereferenceable(80) %0) unnamed_addr #6 comdat align 2 {
  %2 = alloca ptr, align 8
  store ptr %0, ptr %2, align 8, !tbaa !189
  %3 = load ptr, ptr %2, align 8
  %4 = getelementptr inbounds nuw %class.zstring, ptr %3, i32 0, i32 0
  call void @_ZN6bufferIjLb1ELj16EEC2Ev(ptr noundef nonnull align 8 dereferenceable(80) %4) #3
  ret void
}

; Function Attrs: mustprogress uwtable
define hidden noundef i32 @_ZNK8seq_util3str10max_lengthEP4expr(ptr noundef nonnull align 8 dereferenceable(20) %0, ptr noundef %1) #4 align 2 personality ptr @__gxx_personality_v0 {
  %3 = alloca ptr, align 8
  %4 = alloca ptr, align 8
  %5 = alloca i32, align 4
  %6 = alloca ptr, align 8
  %7 = alloca ptr, align 8
  %8 = alloca ptr, align 8
  %9 = alloca i32, align 4
  %10 = alloca %class.zstring, align 8
  %11 = alloca %class.anon.53, align 8
  %12 = alloca ptr, align 8
  %13 = alloca i32, align 4
  store ptr %0, ptr %3, align 8, !tbaa !224
  store ptr %1, ptr %4, align 8, !tbaa !229
  %14 = load ptr, ptr %3, align 8
  call void @llvm.lifetime.start.p0(i64 4, ptr %5) #3
  store i32 0, ptr %5, align 4, !tbaa !55
  call void @llvm.lifetime.start.p0(i64 8, ptr %6) #3
  store ptr null, ptr %6, align 8, !tbaa !229
  call void @llvm.lifetime.start.p0(i64 8, ptr %7) #3
  store ptr null, ptr %7, align 8, !tbaa !229
  call void @llvm.lifetime.start.p0(i64 8, ptr %8) #3
  store ptr null, ptr %8, align 8, !tbaa !229
  call void @llvm.lifetime.start.p0(i64 4, ptr %9) #3
  store i32 0, ptr %9, align 4, !tbaa !55
  call void @llvm.lifetime.start.p0(i64 80, ptr %10) #3
  call void @_ZN7zstringC2Ev(ptr noundef nonnull align 8 dereferenceable(80) %10) #3
  call void @llvm.lifetime.start.p0(i64 40, ptr %11) #3
  %15 = getelementptr inbounds nuw %class.anon.53, ptr %11, i32 0, i32 0
  store ptr %14, ptr %15, align 8, !tbaa !276
  %16 = getelementptr inbounds nuw %class.anon.53, ptr %11, i32 0, i32 1
  store ptr %7, ptr %16, align 8, !tbaa !228
  %17 = getelementptr inbounds nuw %class.anon.53, ptr %11, i32 0, i32 2
  store ptr %8, ptr %17, align 8, !tbaa !228
  %18 = getelementptr inbounds nuw %class.anon.53, ptr %11, i32 0, i32 3
  store ptr %9, ptr %18, align 8, !tbaa !53
  %19 = getelementptr inbounds nuw %class.anon.53, ptr %11, i32 0, i32 4
  store ptr %10, ptr %19, align 8, !tbaa !189
  br label %20

20:                                               ; preds = %48, %2
  %21 = load ptr, ptr %4, align 8, !tbaa !229
  %22 = invoke noundef zeroext i1 @_ZNK8seq_util3str9is_concatEPK4exprRPS1_S5_(ptr noundef nonnull align 8 dereferenceable(20) %14, ptr noundef %21, ptr noundef nonnull align 8 dereferenceable(8) %6, ptr noundef nonnull align 8 dereferenceable(8) %7)
          to label %23 unwind label %36

23:                                               ; preds = %20
  br i1 %22, label %24, label %50

24:                                               ; preds = %23
  %25 = load ptr, ptr %6, align 8, !tbaa !229
  %26 = invoke noundef zeroext i1 @_ZNK8seq_util3str9is_concatEPK4expr(ptr noundef nonnull align 8 dereferenceable(20) %14, ptr noundef %25)
          to label %27 unwind label %36

27:                                               ; preds = %24
  br i1 %26, label %28, label %40

28:                                               ; preds = %27
  %29 = getelementptr inbounds nuw %"class.seq_util::str", ptr %14, i32 0, i32 0
  %30 = load ptr, ptr %29, align 8, !tbaa !242
  %31 = load ptr, ptr %6, align 8, !tbaa !229
  %32 = invoke noundef i32 @_ZNK8seq_util3str10max_lengthEP4expr(ptr noundef nonnull align 8 dereferenceable(20) %14, ptr noundef %31)
          to label %33 unwind label %36

33:                                               ; preds = %28
  %34 = load i32, ptr %5, align 4, !tbaa !55
  %35 = call noundef i32 @_ZNK8seq_util8max_plusEjj(ptr noundef nonnull align 8 dereferenceable(136) %30, i32 noundef %32, i32 noundef %34)
  store i32 %35, ptr %5, align 4, !tbaa !55
  br label %48

36:                                               ; preds = %50, %40, %28, %24, %20
  %37 = landingpad { ptr, i32 }
          cleanup
  %38 = extractvalue { ptr, i32 } %37, 0
  store ptr %38, ptr %12, align 8
  %39 = extractvalue { ptr, i32 } %37, 1
  store i32 %39, ptr %13, align 4
  call void @llvm.lifetime.end.p0(i64 40, ptr %11) #3
  call void @_ZN7zstringD2Ev(ptr noundef nonnull align 8 dereferenceable(80) %10) #3
  call void @llvm.lifetime.end.p0(i64 80, ptr %10) #3
  call void @llvm.lifetime.end.p0(i64 4, ptr %9) #3
  call void @llvm.lifetime.end.p0(i64 8, ptr %8) #3
  call void @llvm.lifetime.end.p0(i64 8, ptr %7) #3
  call void @llvm.lifetime.end.p0(i64 8, ptr %6) #3
  call void @llvm.lifetime.end.p0(i64 4, ptr %5) #3
  br label %59

40:                                               ; preds = %27
  %41 = getelementptr inbounds nuw %"class.seq_util::str", ptr %14, i32 0, i32 0
  %42 = load ptr, ptr %41, align 8, !tbaa !242
  %43 = load ptr, ptr %6, align 8, !tbaa !229
  %44 = invoke noundef i32 @"_ZZNK8seq_util3str10max_lengthEP4exprENK3$_0clES2_"(ptr noundef nonnull align 8 dereferenceable(40) %11, ptr noundef %43)
          to label %45 unwind label %36

45:                                               ; preds = %40
  %46 = load i32, ptr %5, align 4, !tbaa !55
  %47 = call noundef i32 @_ZNK8seq_util8max_plusEjj(ptr noundef nonnull align 8 dereferenceable(136) %42, i32 noundef %44, i32 noundef %46)
  store i32 %47, ptr %5, align 4, !tbaa !55
  br label %48

48:                                               ; preds = %45, %33
  %49 = load ptr, ptr %7, align 8, !tbaa !229
  store ptr %49, ptr %4, align 8, !tbaa !229
  br label %20, !llvm.loop !278

50:                                               ; preds = %23
  %51 = getelementptr inbounds nuw %"class.seq_util::str", ptr %14, i32 0, i32 0
  %52 = load ptr, ptr %51, align 8, !tbaa !242
  %53 = load ptr, ptr %4, align 8, !tbaa !229
  %54 = invoke noundef i32 @"_ZZNK8seq_util3str10max_lengthEP4exprENK3$_0clES2_"(ptr noundef nonnull align 8 dereferenceable(40) %11, ptr noundef %53)
          to label %55 unwind label %36

55:                                               ; preds = %50
  %56 = load i32, ptr %5, align 4, !tbaa !55
  %57 = call noundef i32 @_ZNK8seq_util8max_plusEjj(ptr noundef nonnull align 8 dereferenceable(136) %52, i32 noundef %54, i32 noundef %56)
  store i32 %57, ptr %5, align 4, !tbaa !55
  %58 = load i32, ptr %5, align 4, !tbaa !55
  call void @llvm.lifetime.end.p0(i64 40, ptr %11) #3
  call void @_ZN7zstringD2Ev(ptr noundef nonnull align 8 dereferenceable(80) %10) #3
  call void @llvm.lifetime.end.p0(i64 80, ptr %10) #3
  call void @llvm.lifetime.end.p0(i64 4, ptr %9) #3
  call void @llvm.lifetime.end.p0(i64 8, ptr %8) #3
  call void @llvm.lifetime.end.p0(i64 8, ptr %7) #3
  call void @llvm.lifetime.end.p0(i64 8, ptr %6) #3
  call void @llvm.lifetime.end.p0(i64 4, ptr %5) #3
  ret i32 %58

59:                                               ; preds = %36
  %60 = load ptr, ptr %12, align 8
  %61 = load i32, ptr %13, align 4
  %62 = insertvalue { ptr, i32 } poison, ptr %60, 0
  %63 = insertvalue { ptr, i32 } %62, i32 %61, 1
  resume { ptr, i32 } %63
}