; Function Attrs: mustprogress uwtable
define hidden noundef i32 @_ZNK8seq_util3str10max_lengthEP4expr(ptr noundef nonnull align 8 dereferenceable(20) %0, ptr noundef %1) local_unnamed_addr #3 align 2 personality ptr @__gxx_personality_v0 {
  %3 = alloca ptr, align 8
  %4 = alloca ptr, align 8
  %5 = alloca i32, align 4
  %6 = alloca %class.zstring, align 8
  %7 = alloca %class.anon.53, align 8
  call void @llvm.lifetime.start.p0(i64 8, ptr nonnull %3) #26
  store ptr null, ptr %3, align 8, !tbaa !178
  call void @llvm.lifetime.start.p0(i64 8, ptr nonnull %4) #26
  store ptr null, ptr %4, align 8, !tbaa !178
  call void @llvm.lifetime.start.p0(i64 4, ptr nonnull %5) #26
  store i32 0, ptr %5, align 4, !tbaa !29
  call void @llvm.lifetime.start.p0(i64 80, ptr nonnull %6) #26
  %8 = getelementptr inbounds nuw i8, ptr %6, i64 16
  store ptr %8, ptr %6, align 8, !tbaa !162
  %9 = getelementptr inbounds nuw i8, ptr %6, i64 8
  store i32 0, ptr %9, align 8, !tbaa !164
  %10 = getelementptr inbounds nuw i8, ptr %6, i64 12
  store i32 16, ptr %10, align 4, !tbaa !165
  call void @llvm.lifetime.start.p0(i64 40, ptr nonnull %7) #26
  store ptr %0, ptr %7, align 8, !tbaa !247
  %11 = getelementptr inbounds nuw i8, ptr %7, i64 8
  store ptr %3, ptr %11, align 8, !tbaa !250
  %12 = getelementptr inbounds nuw i8, ptr %7, i64 16
  store ptr %4, ptr %12, align 8, !tbaa !250
  %13 = getelementptr inbounds nuw i8, ptr %7, i64 24
  store ptr %5, ptr %13, align 8, !tbaa !251
  %14 = getelementptr inbounds nuw i8, ptr %7, i64 32
  store ptr %6, ptr %14, align 8, !tbaa !220
  %15 = getelementptr inbounds nuw i8, ptr %0, i64 16
  %16 = getelementptr inbounds nuw i8, ptr %1, i64 4
  %17 = load i32, ptr %16, align 4
  %18 = and i32 %17, 65535
  %19 = icmp eq i32 %18, 0
  br i1 %19, label %.lr.ph, label %._crit_edge

.lr.ph:                                           ; preds = %2, %59
  %.022 = phi ptr [ %60, %59 ], [ %1, %2 ]
  %.0821 = phi i32 [ %.0.i10, %59 ], [ 0, %2 ]
  %20 = load i32, ptr %15, align 8, !tbaa !206
  %21 = getelementptr inbounds nuw i8, ptr %.022, i64 16
  %22 = load ptr, ptr %21, align 8, !tbaa !186
  %23 = getelementptr inbounds nuw i8, ptr %22, i64 24
  %24 = load ptr, ptr %23, align 8, !tbaa !41
  %.not.i.i.i.i.i = icmp eq ptr %24, null
  br i1 %.not.i.i.i.i.i, label %._crit_edge, label %_ZNK8seq_util3str9is_concatEPK4expr.exit.i

_ZNK8seq_util3str9is_concatEPK4expr.exit.i:       ; preds = %.lr.ph
  %25 = load i32, ptr %24, align 8, !tbaa !44
  %26 = icmp eq i32 %25, %20
  %27 = getelementptr inbounds nuw i8, ptr %24, i64 4
  %28 = load i32, ptr %27, align 4
  %29 = icmp eq i32 %28, 2
  %30 = select i1 %26, i1 %29, i1 false
  br i1 %30, label %31, label %._crit_edge

31:                                               ; preds = %_ZNK8seq_util3str9is_concatEPK4expr.exit.i
  %32 = getelementptr inbounds nuw i8, ptr %.022, i64 24
  %33 = load i32, ptr %32, align 8, !tbaa !191
  %34 = icmp eq i32 %33, 2
  br i1 %34, label %35, label %._crit_edge

35:                                               ; preds = %31
  %36 = getelementptr inbounds nuw i8, ptr %.022, i64 32
  %37 = load ptr, ptr %36, align 8, !tbaa !178
  %38 = getelementptr inbounds nuw i8, ptr %.022, i64 40
  %39 = load ptr, ptr %38, align 8, !tbaa !178
  store ptr %39, ptr %3, align 8, !tbaa !178
  %40 = getelementptr inbounds nuw i8, ptr %37, i64 4
  %41 = load i32, ptr %40, align 4
  %42 = and i32 %41, 65535
  %43 = icmp eq i32 %42, 0
  br i1 %43, label %44, label %_ZNK8seq_util3str9is_concatEPK4expr.exit.thread

44:                                               ; preds = %35
  %45 = getelementptr inbounds nuw i8, ptr %37, i64 16
  %46 = load ptr, ptr %45, align 8, !tbaa !186
  %47 = getelementptr inbounds nuw i8, ptr %46, i64 24
  %48 = load ptr, ptr %47, align 8, !tbaa !41
  %.not.i.i.i.i = icmp eq ptr %48, null
  br i1 %.not.i.i.i.i, label %_ZNK8seq_util3str9is_concatEPK4expr.exit.thread, label %_ZNK8seq_util3str9is_concatEPK4expr.exit

_ZNK8seq_util3str9is_concatEPK4expr.exit:         ; preds = %44
  %49 = load i32, ptr %48, align 8, !tbaa !44
  %50 = icmp eq i32 %49, %20
  %51 = getelementptr inbounds nuw i8, ptr %48, i64 4
  %52 = load i32, ptr %51, align 4
  %53 = icmp eq i32 %52, 2
  %54 = select i1 %50, i1 %53, i1 false
  br i1 %54, label %55, label %_ZNK8seq_util3str9is_concatEPK4expr.exit.thread

55:                                               ; preds = %_ZNK8seq_util3str9is_concatEPK4expr.exit
  %56 = invoke noundef i32 @_ZNK8seq_util3str10max_lengthEP4expr(ptr noundef nonnull align 8 dereferenceable(20) %0, ptr noundef nonnull %37)
          to label %59 unwind label %.loopexit

.loopexit:                                        ; preds = %55, %_ZNK8seq_util3str9is_concatEPK4expr.exit.thread
  %lpad.loopexit = landingpad { ptr, i32 }
          cleanup
  br label %57

.loopexit.split-lp:                               ; preds = %._crit_edge
  %lpad.loopexit.split-lp = landingpad { ptr, i32 }
          cleanup
  br label %57

57:                                               ; preds = %.loopexit.split-lp, %.loopexit
  %lpad.phi = phi { ptr, i32 } [ %lpad.loopexit, %.loopexit ], [ %lpad.loopexit.split-lp, %.loopexit.split-lp ]
  call void @llvm.lifetime.end.p0(i64 40, ptr nonnull %7) #26
  call void @_ZN7zstringD2Ev(ptr noundef nonnull align 8 dereferenceable(80) %6) #26
  call void @llvm.lifetime.end.p0(i64 80, ptr nonnull %6) #26
  call void @llvm.lifetime.end.p0(i64 4, ptr nonnull %5) #26
  call void @llvm.lifetime.end.p0(i64 8, ptr nonnull %4) #26
  call void @llvm.lifetime.end.p0(i64 8, ptr nonnull %3) #26
  resume { ptr, i32 } %lpad.phi

_ZNK8seq_util3str9is_concatEPK4expr.exit.thread:  ; preds = %44, %35, %_ZNK8seq_util3str9is_concatEPK4expr.exit
  %58 = invoke fastcc noundef i32 @"_ZZNK8seq_util3str10max_lengthEP4exprENK3$_0clES2_"(ptr noundef nonnull align 8 dereferenceable(40) %7, ptr noundef nonnull %37)
          to label %59 unwind label %.loopexit

59:                                               ; preds = %_ZNK8seq_util3str9is_concatEPK4expr.exit.thread, %55
  %.sink = phi i32 [ %56, %55 ], [ %58, %_ZNK8seq_util3str9is_concatEPK4expr.exit.thread ]
  %.0.i10 = call noundef i32 @llvm.uadd.sat.i32(i32 %.sink, i32 %.0821)
  %60 = load ptr, ptr %3, align 8, !tbaa !178
  %61 = getelementptr inbounds nuw i8, ptr %60, i64 4
  %62 = load i32, ptr %61, align 4
  %63 = and i32 %62, 65535
  %64 = icmp eq i32 %63, 0
  br i1 %64, label %.lr.ph, label %._crit_edge, !llvm.loop !252

._crit_edge:                                      ; preds = %.lr.ph, %59, %_ZNK8seq_util3str9is_concatEPK4expr.exit.i, %31, %2
  %.08.lcssa = phi i32 [ 0, %2 ], [ %.0821, %31 ], [ %.0821, %_ZNK8seq_util3str9is_concatEPK4expr.exit.i ], [ %.0.i10, %59 ], [ %.0821, %.lr.ph ]
  %.0.lcssa = phi ptr [ %1, %2 ], [ %.022, %31 ], [ %.022, %_ZNK8seq_util3str9is_concatEPK4expr.exit.i ], [ %60, %59 ], [ %.022, %.lr.ph ]
  %65 = invoke fastcc noundef i32 @"_ZZNK8seq_util3str10max_lengthEP4exprENK3$_0clES2_"(ptr noundef nonnull align 8 dereferenceable(40) %7, ptr noundef nonnull %.0.lcssa)
          to label %66 unwind label %.loopexit.split-lp

66:                                               ; preds = %._crit_edge
  call void @llvm.lifetime.end.p0(i64 40, ptr nonnull %7) #26
  %67 = load ptr, ptr %6, align 8, !tbaa !162
  %.not.i.i.i.i12 = icmp eq ptr %67, %8
  %68 = icmp eq ptr %67, null
  %or.cond.i.i.i.i = or i1 %.not.i.i.i.i12, %68
  br i1 %or.cond.i.i.i.i, label %_ZN7zstringD2Ev.exit, label %69

69:                                               ; preds = %66
  invoke void @_ZN6memory10deallocateEPv(ptr noundef nonnull %67)
          to label %_ZN7zstringD2Ev.exit unwind label %70

70:                                               ; preds = %69
  %71 = landingpad { ptr, i32 }
          catch ptr null
  %72 = extractvalue { ptr, i32 } %71, 0
  call void @__clang_call_terminate(ptr %72) #27
  unreachable

_ZN7zstringD2Ev.exit:                             ; preds = %66, %69
  %.0.i11 = call noundef i32 @llvm.uadd.sat.i32(i32 %65, i32 %.08.lcssa)
  call void @llvm.lifetime.end.p0(i64 80, ptr nonnull %6) #26
  call void @llvm.lifetime.end.p0(i64 4, ptr nonnull %5) #26
  call void @llvm.lifetime.end.p0(i64 8, ptr nonnull %4) #26
  call void @llvm.lifetime.end.p0(i64 8, ptr nonnull %3) #26
  ret i32 %.0.i11
}